; Function Attrs: mustprogress nounwind uwtable
define dso_local noundef ptr @_ZN4llvm12SCEVExpander22expandComparePredicateEPKNS_20SCEVComparePredicateEPNS_11InstructionE(ptr noundef nonnull align 8 dereferenceable(816) %0, ptr noundef readonly captures(none) %1, ptr noundef %2) local_unnamed_addr #0 align 2 {
  %4 = alloca %"class.llvm::Twine", align 8
  %5 = getelementptr inbounds nuw i8, ptr %1, i64 40
  %6 = load ptr, ptr %5, align 8
  %7 = getelementptr inbounds nuw i8, ptr %0, i64 472
  tail call void @_ZN4llvm13IRBuilderBase14SetInsertPointEPNS_11InstructionE(ptr noundef nonnull align 8 dereferenceable(128) %7, ptr noundef %2)
  %8 = tail call noundef ptr @_ZN4llvm12SCEVExpander6expandEPKNS_4SCEVE(ptr noundef nonnull align 8 dereferenceable(816) %0, ptr noundef %6)
  %9 = getelementptr inbounds nuw i8, ptr %1, i64 48
  %10 = load ptr, ptr %9, align 8
  tail call void @_ZN4llvm13IRBuilderBase14SetInsertPointEPNS_11InstructionE(ptr noundef nonnull align 8 dereferenceable(128) %7, ptr noundef %2)
  %11 = tail call noundef ptr @_ZN4llvm12SCEVExpander6expandEPKNS_4SCEVE(ptr noundef nonnull align 8 dereferenceable(816) %0, ptr noundef %10)
  tail call void @_ZN4llvm13IRBuilderBase14SetInsertPointEPNS_11InstructionE(ptr noundef nonnull align 8 dereferenceable(128) %7, ptr noundef %2)
  %12 = getelementptr inbounds nuw i8, ptr %1, i64 36
  %13 = load i32, ptr %12, align 4
  %14 = tail call noundef i32 @_ZN4llvm7CmpInst19getInversePredicateENS0_9PredicateE(i32 noundef %13) #18
  %15 = getelementptr inbounds nuw i8, ptr %4, i64 32
  %16 = getelementptr inbounds nuw i8, ptr %4, i64 33
  store i8 1, ptr %16, align 1
  store ptr @.str.12, ptr %4, align 8
  store i8 3, ptr %15, align 8
  %17 = call noundef ptr @_ZN4llvm13IRBuilderBase10CreateICmpENS_7CmpInst9PredicateEPNS_5ValueES4_RKNS_5TwineE(ptr noundef nonnull align 8 dereferenceable(128) %7, i32 noundef %14, ptr noundef %8, ptr noundef %11, ptr noundef nonnull align 8 dereferenceable(34) %4)
  ret ptr %17
}